target datalayout = "e-m:e-p270:32:32-p271:32:32-p272:64:64-i64:64-i128:128-f80:128-n8:16:32:64-S128"
target triple = "x86_64-pc-linux-gnu"

%struct.strbuf = type { i64, i64, ptr }
%struct.object_id = type { [32 x i8], i32 }
%struct.commit_extra_header = type { ptr, ptr, ptr, i64 }

@.str.25 = private unnamed_addr constant [2 x i8] c" \00", align 1
@git_commit_encoding = external global ptr, align 8
@.str.49 = private unnamed_addr constant [9 x i8] c"tree %s\0A\00", align 1
@.str.50 = private unnamed_addr constant [11 x i8] c"parent %s\0A\00", align 1
@.str.51 = private unnamed_addr constant [11 x i8] c"author %s\0A\00", align 1
@.str.52 = private unnamed_addr constant [14 x i8] c"committer %s\0A\00", align 1
@.str.53 = private unnamed_addr constant [13 x i8] c"encoding %s\0A\00", align 1

; Function Attrs: inlinehint nounwind uwtable
define internal i64 @strbuf_avail(ptr noundef %0) #4 {
  %2 = alloca ptr, align 8
  store ptr %0, ptr %2, align 8, !tbaa !62
  %3 = load ptr, ptr %2, align 8, !tbaa !62
  %4 = getelementptr inbounds nuw %struct.strbuf, ptr %3, i32 0, i32 0
  %5 = load i64, ptr %4, align 8, !tbaa !239
  %6 = icmp ne i64 %5, 0
  br i1 %6, label %7, label %16

7:                                                ; preds = %1
  %8 = load ptr, ptr %2, align 8, !tbaa !62
  %9 = getelementptr inbounds nuw %struct.strbuf, ptr %8, i32 0, i32 0
  %10 = load i64, ptr %9, align 8, !tbaa !239
  %11 = load ptr, ptr %2, align 8, !tbaa !62
  %12 = getelementptr inbounds nuw %struct.strbuf, ptr %11, i32 0, i32 1
  %13 = load i64, ptr %12, align 8, !tbaa !64
  %14 = sub i64 %10, %13
  %15 = sub i64 %14, 1
  br label %17

16:                                               ; preds = %1
  br label %17

17:                                               ; preds = %16, %7
  %18 = phi i64 [ %15, %7 ], [ 0, %16 ]
  ret i64 %18
}

; Function Attrs: inlinehint nounwind uwtable
define internal void @strbuf_addstr(ptr noundef %0, ptr noundef %1) #4 {
  %3 = alloca ptr, align 8
  %4 = alloca ptr, align 8
  store ptr %0, ptr %3, align 8, !tbaa !62
  store ptr %1, ptr %4, align 8, !tbaa !15
  %5 = load ptr, ptr %3, align 8, !tbaa !62
  %6 = load ptr, ptr %4, align 8, !tbaa !15
  %7 = load ptr, ptr %4, align 8, !tbaa !15
  %8 = call i64 @strlen(ptr noundef %7) #13
  call void @strbuf_add(ptr noundef %5, ptr noundef %6, i64 noundef %8)
  ret void
}

; Function Attrs: inlinehint nounwind uwtable
define internal void @strbuf_addch(ptr noundef %0, i32 noundef %1) #4 {
  %3 = alloca ptr, align 8
  %4 = alloca i32, align 4
  store ptr %0, ptr %3, align 8, !tbaa !62
  store i32 %1, ptr %4, align 4, !tbaa !11
  %5 = load ptr, ptr %3, align 8, !tbaa !62
  %6 = call i64 @strbuf_avail(ptr noundef %5)
  %7 = icmp ne i64 %6, 0
  br i1 %7, label %10, label %8

8:                                                ; preds = %2
  %9 = load ptr, ptr %3, align 8, !tbaa !62
  call void @strbuf_grow(ptr noundef %9, i64 noundef 1)
  br label %10

10:                                               ; preds = %8, %2
  %11 = load i32, ptr %4, align 4, !tbaa !11
  %12 = trunc i32 %11 to i8
  %13 = load ptr, ptr %3, align 8, !tbaa !62
  %14 = getelementptr inbounds nuw %struct.strbuf, ptr %13, i32 0, i32 2
  %15 = load ptr, ptr %14, align 8, !tbaa !66
  %16 = load ptr, ptr %3, align 8, !tbaa !62
  %17 = getelementptr inbounds nuw %struct.strbuf, ptr %16, i32 0, i32 1
  %18 = load i64, ptr %17, align 8, !tbaa !64
  %19 = add i64 %18, 1
  store i64 %19, ptr %17, align 8, !tbaa !64
  %20 = getelementptr inbounds nuw i8, ptr %15, i64 %18
  store i8 %12, ptr %20, align 1, !tbaa !19
  %21 = load ptr, ptr %3, align 8, !tbaa !62
  %22 = getelementptr inbounds nuw %struct.strbuf, ptr %21, i32 0, i32 2
  %23 = load ptr, ptr %22, align 8, !tbaa !66
  %24 = load ptr, ptr %3, align 8, !tbaa !62
  %25 = getelementptr inbounds nuw %struct.strbuf, ptr %24, i32 0, i32 1
  %26 = load i64, ptr %25, align 8, !tbaa !64
  %27 = getelementptr inbounds nuw i8, ptr %23, i64 %26
  store i8 0, ptr %27, align 1, !tbaa !19
  ret void
}

; Function Attrs: nounwind uwtable
define internal void @add_extra_header(ptr noundef %0, ptr noundef %1) #0 {
  %3 = alloca ptr, align 8
  %4 = alloca ptr, align 8
  store ptr %0, ptr %3, align 8, !tbaa !62
  store ptr %1, ptr %4, align 8, !tbaa !199
  %5 = load ptr, ptr %3, align 8, !tbaa !62
  %6 = load ptr, ptr %4, align 8, !tbaa !199
  %7 = getelementptr inbounds nuw %struct.commit_extra_header, ptr %6, i32 0, i32 1
  %8 = load ptr, ptr %7, align 8, !tbaa !201
  call void @strbuf_addstr(ptr noundef %5, ptr noundef %8)
  %9 = load ptr, ptr %4, align 8, !tbaa !199
  %10 = getelementptr inbounds nuw %struct.commit_extra_header, ptr %9, i32 0, i32 3
  %11 = load i64, ptr %10, align 8, !tbaa !204
  %12 = icmp ne i64 %11, 0
  br i1 %12, label %13, label %21

13:                                               ; preds = %2
  %14 = load ptr, ptr %3, align 8, !tbaa !62
  %15 = load ptr, ptr %4, align 8, !tbaa !199
  %16 = getelementptr inbounds nuw %struct.commit_extra_header, ptr %15, i32 0, i32 2
  %17 = load ptr, ptr %16, align 8, !tbaa !203
  %18 = load ptr, ptr %4, align 8, !tbaa !199
  %19 = getelementptr inbounds nuw %struct.commit_extra_header, ptr %18, i32 0, i32 3
  %20 = load i64, ptr %19, align 8, !tbaa !204
  call void @strbuf_add_lines(ptr noundef %14, ptr noundef @.str.25, ptr noundef %17, i64 noundef %20)
  br label %23

21:                                               ; preds = %2
  %22 = load ptr, ptr %3, align 8, !tbaa !62
  call void @strbuf_addch(ptr noundef %22, i32 noundef 10)
  br label %23

23:                                               ; preds = %21, %13
  ret void
}

; Function Attrs: nounwind uwtable
define internal void @write_commit_tree(ptr noundef %0, ptr noundef %1, i64 noundef %2, ptr noundef %3, ptr noundef %4, i64 noundef %5, ptr noundef %6, ptr noundef %7, ptr noundef %8) #0 {
  %10 = alloca ptr, align 8
  %11 = alloca ptr, align 8
  %12 = alloca i64, align 8
  %13 = alloca ptr, align 8
  %14 = alloca ptr, align 8
  %15 = alloca i64, align 8
  %16 = alloca ptr, align 8
  %17 = alloca ptr, align 8
  %18 = alloca ptr, align 8
  %19 = alloca i32, align 4
  %20 = alloca i64, align 8
  store ptr %0, ptr %10, align 8, !tbaa !62
  store ptr %1, ptr %11, align 8, !tbaa !15
  store i64 %2, ptr %12, align 8, !tbaa !47
  store ptr %3, ptr %13, align 8, !tbaa !9
  store ptr %4, ptr %14, align 8, !tbaa !9
  store i64 %5, ptr %15, align 8, !tbaa !47
  store ptr %6, ptr %16, align 8, !tbaa !15
  store ptr %7, ptr %17, align 8, !tbaa !15
  store ptr %8, ptr %18, align 8, !tbaa !199
  call void @llvm.lifetime.start.p0(i64 4, ptr %19) #11
  call void @llvm.lifetime.start.p0(i64 8, ptr %20) #11
  %21 = load ptr, ptr @git_commit_encoding, align 8, !tbaa !15
  %22 = call i32 @is_encoding_utf8(ptr noundef %21)
  store i32 %22, ptr %19, align 4, !tbaa !11
  %23 = load ptr, ptr %10, align 8, !tbaa !62
  call void @strbuf_grow(ptr noundef %23, i64 noundef 8192)
  %24 = load ptr, ptr %10, align 8, !tbaa !62
  %25 = load ptr, ptr %13, align 8, !tbaa !9
  %26 = call ptr @oid_to_hex(ptr noundef %25)
  call void (ptr, ptr, ...) @strbuf_addf(ptr noundef %24, ptr noundef @.str.49, ptr noundef %26)
  store i64 0, ptr %20, align 8, !tbaa !47
  br label %27

27:                                               ; preds = %37, %9
  %28 = load i64, ptr %20, align 8, !tbaa !47
  %29 = load i64, ptr %15, align 8, !tbaa !47
  %30 = icmp ult i64 %28, %29
  br i1 %30, label %31, label %40

31:                                               ; preds = %27
  %32 = load ptr, ptr %10, align 8, !tbaa !62
  %33 = load ptr, ptr %14, align 8, !tbaa !9
  %34 = load i64, ptr %20, align 8, !tbaa !47
  %35 = getelementptr inbounds nuw %struct.object_id, ptr %33, i64 %34
  %36 = call ptr @oid_to_hex(ptr noundef %35)
  call void (ptr, ptr, ...) @strbuf_addf(ptr noundef %32, ptr noundef @.str.50, ptr noundef %36)
  br label %37

37:                                               ; preds = %31
  %38 = load i64, ptr %20, align 8, !tbaa !47
  %39 = add i64 %38, 1
  store i64 %39, ptr %20, align 8, !tbaa !47
  br label %27, !llvm.loop !219

40:                                               ; preds = %27
  %41 = load ptr, ptr %16, align 8, !tbaa !15
  %42 = icmp ne ptr %41, null
  br i1 %42, label %45, label %43

43:                                               ; preds = %40
  %44 = call ptr @git_author_info(i32 noundef 1)
  store ptr %44, ptr %16, align 8, !tbaa !15
  br label %45

45:                                               ; preds = %43, %40
  %46 = load ptr, ptr %10, align 8, !tbaa !62
  %47 = load ptr, ptr %16, align 8, !tbaa !15
  call void (ptr, ptr, ...) @strbuf_addf(ptr noundef %46, ptr noundef @.str.51, ptr noundef %47)
  %48 = load ptr, ptr %17, align 8, !tbaa !15
  %49 = icmp ne ptr %48, null
  br i1 %49, label %52, label %50

50:                                               ; preds = %45
  %51 = call ptr @git_committer_info(i32 noundef 1)
  store ptr %51, ptr %17, align 8, !tbaa !15
  br label %52

52:                                               ; preds = %50, %45
  %53 = load ptr, ptr %10, align 8, !tbaa !62
  %54 = load ptr, ptr %17, align 8, !tbaa !15
  call void (ptr, ptr, ...) @strbuf_addf(ptr noundef %53, ptr noundef @.str.52, ptr noundef %54)
  %55 = load i32, ptr %19, align 4, !tbaa !11
  %56 = icmp ne i32 %55, 0
  br i1 %56, label %60, label %57

57:                                               ; preds = %52
  %58 = load ptr, ptr %10, align 8, !tbaa !62
  %59 = load ptr, ptr @git_commit_encoding, align 8, !tbaa !15
  call void (ptr, ptr, ...) @strbuf_addf(ptr noundef %58, ptr noundef @.str.53, ptr noundef %59)
  br label %60

60:                                               ; preds = %57, %52
  br label %61

61:                                               ; preds = %64, %60
  %62 = load ptr, ptr %18, align 8, !tbaa !199
  %63 = icmp ne ptr %62, null
  br i1 %63, label %64, label %70

64:                                               ; preds = %61
  %65 = load ptr, ptr %10, align 8, !tbaa !62
  %66 = load ptr, ptr %18, align 8, !tbaa !199
  call void @add_extra_header(ptr noundef %65, ptr noundef %66)
  %67 = load ptr, ptr %18, align 8, !tbaa !199
  %68 = getelementptr inbounds nuw %struct.commit_extra_header, ptr %67, i32 0, i32 0
  %69 = load ptr, ptr %68, align 8, !tbaa !208
  store ptr %69, ptr %18, align 8, !tbaa !199
  br label %61, !llvm.loop !220

70:                                               ; preds = %61
  %71 = load ptr, ptr %10, align 8, !tbaa !62
  call void @strbuf_addch(ptr noundef %71, i32 noundef 10)
  %72 = load ptr, ptr %10, align 8, !tbaa !62
  %73 = load ptr, ptr %11, align 8, !tbaa !15
  %74 = load i64, ptr %12, align 8, !tbaa !47
  call void @strbuf_add(ptr noundef %72, ptr noundef %73, i64 noundef %74)
  call void @llvm.lifetime.end.p0(i64 8, ptr %20) #11
  call void @llvm.lifetime.end.p0(i64 4, ptr %19) #11
  ret void
}