; Function Attrs: nounwind uwtable
define internal fastcc void @write_commit_tree(ptr noundef nonnull %0, ptr noundef %1, i64 noundef %2, ptr noundef %3, ptr noundef %4, i64 noundef range(i64 0, 4294967296) %5, ptr noundef %6, ptr noundef %7, ptr noundef readonly %8) unnamed_addr #0 {
  %10 = load ptr, ptr @git_commit_encoding, align 8, !tbaa !54
  %11 = tail call i32 @is_encoding_utf8(ptr noundef %10) #24
  tail call void @strbuf_grow(ptr noundef nonnull %0, i64 noundef 8192) #24
  %12 = tail call ptr @oid_to_hex(ptr noundef %3) #24
  tail call void (ptr, ptr, ...) @strbuf_addf(ptr noundef nonnull %0, ptr noundef nonnull @.str.49, ptr noundef %12) #24
  %.not40 = icmp eq i64 %5, 0
  br i1 %.not40, label %._crit_edge, label %.lr.ph

.lr.ph:                                           ; preds = %9, %.lr.ph
  %.034 = phi i64 [ %15, %.lr.ph ], [ 0, %9 ]
  %13 = getelementptr inbounds nuw %struct.object_id, ptr %4, i64 %.034
  %14 = tail call ptr @oid_to_hex(ptr noundef %13) #24
  tail call void (ptr, ptr, ...) @strbuf_addf(ptr noundef nonnull %0, ptr noundef nonnull @.str.50, ptr noundef %14) #24
  %15 = add nuw nsw i64 %.034, 1
  %exitcond.not = icmp eq i64 %15, %5
  br i1 %exitcond.not, label %._crit_edge, label %.lr.ph, !llvm.loop !197

._crit_edge:                                      ; preds = %.lr.ph, %9
  %.not = icmp eq ptr %6, null
  br i1 %.not, label %16, label %18

16:                                               ; preds = %._crit_edge
  %17 = tail call ptr @git_author_info(i32 noundef 1) #24
  br label %18

18:                                               ; preds = %16, %._crit_edge
  %.024 = phi ptr [ %6, %._crit_edge ], [ %17, %16 ]
  tail call void (ptr, ptr, ...) @strbuf_addf(ptr noundef nonnull %0, ptr noundef nonnull @.str.51, ptr noundef %.024) #24
  %.not29 = icmp eq ptr %7, null
  br i1 %.not29, label %19, label %21

19:                                               ; preds = %18
  %20 = tail call ptr @git_committer_info(i32 noundef 1) #24
  br label %21

21:                                               ; preds = %19, %18
  %.026 = phi ptr [ %7, %18 ], [ %20, %19 ]
  tail call void (ptr, ptr, ...) @strbuf_addf(ptr noundef nonnull %0, ptr noundef nonnull @.str.52, ptr noundef %.026) #24
  %.not30 = icmp eq i32 %11, 0
  br i1 %.not30, label %22, label %24

22:                                               ; preds = %21
  %23 = load ptr, ptr @git_commit_encoding, align 8, !tbaa !54
  tail call void (ptr, ptr, ...) @strbuf_addf(ptr noundef nonnull %0, ptr noundef nonnull @.str.53, ptr noundef %23) #24
  br label %24

24:                                               ; preds = %22, %21
  %.not3135 = icmp eq ptr %8, null
  br i1 %.not3135, label %._crit_edge39, label %.lr.ph38

.lr.ph38:                                         ; preds = %24
  %25 = getelementptr inbounds nuw i8, ptr %0, i64 8
  %26 = getelementptr inbounds nuw i8, ptr %0, i64 16
  br label %27

27:                                               ; preds = %.lr.ph38, %add_extra_header.exit
  %.02536 = phi ptr [ %8, %.lr.ph38 ], [ %45, %add_extra_header.exit ]
  %28 = getelementptr inbounds nuw i8, ptr %.02536, i64 8
  %29 = load ptr, ptr %28, align 8, !tbaa !173
  %30 = tail call i64 @strlen(ptr noundef nonnull dereferenceable(1) %29) #26
  tail call void @strbuf_add(ptr noundef nonnull %0, ptr noundef nonnull %29, i64 noundef %30) #24
  %31 = getelementptr inbounds nuw i8, ptr %.02536, i64 24
  %32 = load i64, ptr %31, align 8, !tbaa !177
  %.not.i = icmp eq i64 %32, 0
  br i1 %.not.i, label %36, label %33

33:                                               ; preds = %27
  %34 = getelementptr inbounds nuw i8, ptr %.02536, i64 16
  %35 = load ptr, ptr %34, align 8, !tbaa !176
  tail call void @strbuf_add_lines(ptr noundef nonnull %0, ptr noundef nonnull @.str.25, ptr noundef %35, i64 noundef %32) #24
  br label %add_extra_header.exit

36:                                               ; preds = %27
  %37 = load i64, ptr %0, align 8, !tbaa !198
  %.not.i.i.i = icmp eq i64 %37, 0
  br i1 %.not.i.i.i, label %strbuf_avail.exit.thread.i.i, label %strbuf_avail.exit.i.i

strbuf_avail.exit.i.i:                            ; preds = %36
  %38 = load i64, ptr %25, align 8, !tbaa !55
  %.neg.i.i = add i64 %38, 1
  %.not.i.i = icmp eq i64 %37, %.neg.i.i
  br i1 %.not.i.i, label %strbuf_avail.exit.thread.i.i, label %strbuf_addch.exit.i

strbuf_avail.exit.thread.i.i:                     ; preds = %strbuf_avail.exit.i.i, %36
  tail call void @strbuf_grow(ptr noundef nonnull %0, i64 noundef 1) #24
  %.pre.i.i = load i64, ptr %25, align 8, !tbaa !55
  %.pre7.i.i = add i64 %.pre.i.i, 1
  br label %strbuf_addch.exit.i

strbuf_addch.exit.i:                              ; preds = %strbuf_avail.exit.thread.i.i, %strbuf_avail.exit.i.i
  %.pre-phi.i.i = phi i64 [ %.pre7.i.i, %strbuf_avail.exit.thread.i.i ], [ %.neg.i.i, %strbuf_avail.exit.i.i ]
  %39 = phi i64 [ %.pre.i.i, %strbuf_avail.exit.thread.i.i ], [ %38, %strbuf_avail.exit.i.i ]
  %40 = load ptr, ptr %26, align 8, !tbaa !57
  store i64 %.pre-phi.i.i, ptr %25, align 8, !tbaa !55
  %41 = getelementptr inbounds nuw i8, ptr %40, i64 %39
  store i8 10, ptr %41, align 1, !tbaa !11
  %42 = load ptr, ptr %26, align 8, !tbaa !57
  %43 = load i64, ptr %25, align 8, !tbaa !55
  %44 = getelementptr inbounds nuw i8, ptr %42, i64 %43
  store i8 0, ptr %44, align 1, !tbaa !11
  br label %add_extra_header.exit

add_extra_header.exit:                            ; preds = %33, %strbuf_addch.exit.i
  %45 = load ptr, ptr %.02536, align 8, !tbaa !183
  %.not31 = icmp eq ptr %45, null
  br i1 %.not31, label %._crit_edge39, label %27, !llvm.loop !199

._crit_edge39:                                    ; preds = %add_extra_header.exit, %24
  %46 = load i64, ptr %0, align 8, !tbaa !198
  %.not.i.i32 = icmp eq i64 %46, 0
  br i1 %.not.i.i32, label %strbuf_avail.exit.thread.i, label %strbuf_avail.exit.i

strbuf_avail.exit.i:                              ; preds = %._crit_edge39
  %47 = getelementptr inbounds nuw i8, ptr %0, i64 8
  %48 = load i64, ptr %47, align 8, !tbaa !55
  %.neg.i = add i64 %48, 1
  %.not.i33 = icmp eq i64 %46, %.neg.i
  br i1 %.not.i33, label %strbuf_avail.exit.thread.i, label %strbuf_addch.exit

strbuf_avail.exit.thread.i:                       ; preds = %strbuf_avail.exit.i, %._crit_edge39
  tail call void @strbuf_grow(ptr noundef nonnull %0, i64 noundef 1) #24
  %.phi.trans.insert.i = getelementptr inbounds nuw i8, ptr %0, i64 8
  %.pre.i = load i64, ptr %.phi.trans.insert.i, align 8, !tbaa !55
  %.pre7.i = add i64 %.pre.i, 1
  br label %strbuf_addch.exit

strbuf_addch.exit:                                ; preds = %strbuf_avail.exit.i, %strbuf_avail.exit.thread.i
  %.pre-phi.i = phi i64 [ %.pre7.i, %strbuf_avail.exit.thread.i ], [ %.neg.i, %strbuf_avail.exit.i ]
  %49 = phi i64 [ %.pre.i, %strbuf_avail.exit.thread.i ], [ %48, %strbuf_avail.exit.i ]
  %50 = getelementptr inbounds nuw i8, ptr %0, i64 16
  %51 = load ptr, ptr %50, align 8, !tbaa !57
  %52 = getelementptr inbounds nuw i8, ptr %0, i64 8
  store i64 %.pre-phi.i, ptr %52, align 8, !tbaa !55
  %53 = getelementptr inbounds nuw i8, ptr %51, i64 %49
  store i8 10, ptr %53, align 1, !tbaa !11
  %54 = load ptr, ptr %50, align 8, !tbaa !57
  %55 = load i64, ptr %52, align 8, !tbaa !55
  %56 = getelementptr inbounds nuw i8, ptr %54, i64 %55
  store i8 0, ptr %56, align 1, !tbaa !11
  tail call void @strbuf_add(ptr noundef nonnull %0, ptr noundef %1, i64 noundef %2) #24
  ret void
}